target datalayout = "e-m:e-p270:32:32-p271:32:32-p272:64:64-i64:64-i128:128-f80:128-n8:16:32:64-S128"
target triple = "x86_64-pc-linux-gnu"

%struct.b2Vec2 = type { float, float }
%struct.b2MassData = type { float, %struct.b2Vec2, float }
%struct.b2Capsule = type { %struct.b2Vec2, %struct.b2Vec2, float }

; Function Attrs: inlinehint nounwind uwtable
define internal float @b2Dot(<2 x float> %0, <2 x float> %1) #6 {
  %3 = alloca %struct.b2Vec2, align 4
  %4 = alloca %struct.b2Vec2, align 4
  store <2 x float> %0, ptr %3, align 4
  store <2 x float> %1, ptr %4, align 4
  %5 = getelementptr inbounds nuw %struct.b2Vec2, ptr %3, i32 0, i32 0
  %6 = load float, ptr %5, align 4, !tbaa !30
  %7 = getelementptr inbounds nuw %struct.b2Vec2, ptr %4, i32 0, i32 0
  %8 = load float, ptr %7, align 4, !tbaa !30
  %9 = fmul float %6, %8
  %10 = getelementptr inbounds nuw %struct.b2Vec2, ptr %3, i32 0, i32 1
  %11 = load float, ptr %10, align 4, !tbaa !31
  %12 = getelementptr inbounds nuw %struct.b2Vec2, ptr %4, i32 0, i32 1
  %13 = load float, ptr %12, align 4, !tbaa !31
  %14 = fmul float %11, %13
  %15 = fadd float %9, %14
  ret float %15
}

; Function Attrs: inlinehint nounwind uwtable
define internal float @b2Length(<2 x float> %0) #6 {
  %2 = alloca %struct.b2Vec2, align 4
  store <2 x float> %0, ptr %2, align 4
  %3 = getelementptr inbounds nuw %struct.b2Vec2, ptr %2, i32 0, i32 0
  %4 = load float, ptr %3, align 4, !tbaa !30
  %5 = getelementptr inbounds nuw %struct.b2Vec2, ptr %2, i32 0, i32 0
  %6 = load float, ptr %5, align 4, !tbaa !30
  %7 = fmul float %4, %6
  %8 = getelementptr inbounds nuw %struct.b2Vec2, ptr %2, i32 0, i32 1
  %9 = load float, ptr %8, align 4, !tbaa !31
  %10 = getelementptr inbounds nuw %struct.b2Vec2, ptr %2, i32 0, i32 1
  %11 = load float, ptr %10, align 4, !tbaa !31
  %12 = fmul float %9, %11
  %13 = fadd float %7, %12
  %14 = call float @sqrtf(float noundef %13) #9, !tbaa !25
  ret float %14
}

; Function Attrs: inlinehint nounwind uwtable
define internal <2 x float> @b2Sub(<2 x float> %0, <2 x float> %1) #6 {
  %3 = alloca %struct.b2Vec2, align 4
  %4 = alloca %struct.b2Vec2, align 4
  %5 = alloca %struct.b2Vec2, align 4
  store <2 x float> %0, ptr %4, align 4
  store <2 x float> %1, ptr %5, align 4
  %6 = getelementptr inbounds nuw %struct.b2Vec2, ptr %3, i32 0, i32 0
  %7 = getelementptr inbounds nuw %struct.b2Vec2, ptr %4, i32 0, i32 0
  %8 = load float, ptr %7, align 4, !tbaa !30
  %9 = getelementptr inbounds nuw %struct.b2Vec2, ptr %5, i32 0, i32 0
  %10 = load float, ptr %9, align 4, !tbaa !30
  %11 = fsub float %8, %10
  store float %11, ptr %6, align 4, !tbaa !30
  %12 = getelementptr inbounds nuw %struct.b2Vec2, ptr %3, i32 0, i32 1
  %13 = getelementptr inbounds nuw %struct.b2Vec2, ptr %4, i32 0, i32 1
  %14 = load float, ptr %13, align 4, !tbaa !31
  %15 = getelementptr inbounds nuw %struct.b2Vec2, ptr %5, i32 0, i32 1
  %16 = load float, ptr %15, align 4, !tbaa !31
  %17 = fsub float %14, %16
  store float %17, ptr %12, align 4, !tbaa !31
  %18 = load <2 x float>, ptr %3, align 4
  ret <2 x float> %18
}

; Function Attrs: nounwind uwtable
define { <2 x float>, <2 x float> } @b2ComputeCapsuleMass(ptr noundef %0, float noundef %1) #0 {
  %3 = alloca %struct.b2MassData, align 4
  %4 = alloca ptr, align 8
  %5 = alloca float, align 4
  %6 = alloca float, align 4
  %7 = alloca float, align 4
  %8 = alloca %struct.b2Vec2, align 4
  %9 = alloca %struct.b2Vec2, align 4
  %10 = alloca float, align 4
  %11 = alloca %struct.b2Vec2, align 4
  %12 = alloca float, align 4
  %13 = alloca float, align 4
  %14 = alloca float, align 4
  %15 = alloca float, align 4
  %16 = alloca float, align 4
  %17 = alloca float, align 4
  %18 = alloca float, align 4
  store ptr %0, ptr %4, align 8, !tbaa !57
  store float %1, ptr %5, align 4, !tbaa !12
  call void @llvm.lifetime.start.p0(i64 4, ptr %6) #9
  %19 = load ptr, ptr %4, align 8, !tbaa !57
  %20 = getelementptr inbounds nuw %struct.b2Capsule, ptr %19, i32 0, i32 2
  %21 = load float, ptr %20, align 4, !tbaa !59
  store float %21, ptr %6, align 4, !tbaa !12
  call void @llvm.lifetime.start.p0(i64 4, ptr %7) #9
  %22 = load float, ptr %6, align 4, !tbaa !12
  %23 = load float, ptr %6, align 4, !tbaa !12
  %24 = fmul float %22, %23
  store float %24, ptr %7, align 4, !tbaa !12
  call void @llvm.lifetime.start.p0(i64 8, ptr %8) #9
  %25 = load ptr, ptr %4, align 8, !tbaa !57
  %26 = getelementptr inbounds nuw %struct.b2Capsule, ptr %25, i32 0, i32 0
  call void @llvm.memcpy.p0.p0.i64(ptr align 4 %8, ptr align 4 %26, i64 8, i1 false), !tbaa.struct !26
  call void @llvm.lifetime.start.p0(i64 8, ptr %9) #9
  %27 = load ptr, ptr %4, align 8, !tbaa !57
  %28 = getelementptr inbounds nuw %struct.b2Capsule, ptr %27, i32 0, i32 1
  call void @llvm.memcpy.p0.p0.i64(ptr align 4 %9, ptr align 4 %28, i64 8, i1 false), !tbaa.struct !26
  call void @llvm.lifetime.start.p0(i64 4, ptr %10) #9
  %29 = load <2 x float>, ptr %9, align 4
  %30 = load <2 x float>, ptr %8, align 4
  %31 = call <2 x float> @b2Sub(<2 x float> %29, <2 x float> %30)
  store <2 x float> %31, ptr %11, align 4
  %32 = load <2 x float>, ptr %11, align 4
  %33 = call float @b2Length(<2 x float> %32)
  store float %33, ptr %10, align 4, !tbaa !12
  call void @llvm.lifetime.start.p0(i64 4, ptr %12) #9
  %34 = load float, ptr %10, align 4, !tbaa !12
  %35 = load float, ptr %10, align 4, !tbaa !12
  %36 = fmul float %34, %35
  store float %36, ptr %12, align 4, !tbaa !12
  call void @llvm.lifetime.start.p0(i64 4, ptr %13) #9
  %37 = load float, ptr %5, align 4, !tbaa !12
  %38 = load float, ptr %6, align 4, !tbaa !12
  %39 = fmul float 0x400921FB60000000, %38
  %40 = load float, ptr %6, align 4, !tbaa !12
  %41 = fmul float %39, %40
  %42 = fmul float %37, %41
  store float %42, ptr %13, align 4, !tbaa !12
  call void @llvm.lifetime.start.p0(i64 4, ptr %14) #9
  %43 = load float, ptr %5, align 4, !tbaa !12
  %44 = load float, ptr %6, align 4, !tbaa !12
  %45 = fmul float 2.000000e+00, %44
  %46 = load float, ptr %10, align 4, !tbaa !12
  %47 = fmul float %45, %46
  %48 = fmul float %43, %47
  store float %48, ptr %14, align 4, !tbaa !12
  %49 = load float, ptr %13, align 4, !tbaa !12
  %50 = load float, ptr %14, align 4, !tbaa !12
  %51 = fadd float %49, %50
  %52 = getelementptr inbounds nuw %struct.b2MassData, ptr %3, i32 0, i32 0
  store float %51, ptr %52, align 4, !tbaa !54
  %53 = getelementptr inbounds nuw %struct.b2Vec2, ptr %8, i32 0, i32 0
  %54 = load float, ptr %53, align 4, !tbaa !30
  %55 = getelementptr inbounds nuw %struct.b2Vec2, ptr %9, i32 0, i32 0
  %56 = load float, ptr %55, align 4, !tbaa !30
  %57 = fadd float %54, %56
  %58 = fmul float 5.000000e-01, %57
  %59 = getelementptr inbounds nuw %struct.b2MassData, ptr %3, i32 0, i32 1
  %60 = getelementptr inbounds nuw %struct.b2Vec2, ptr %59, i32 0, i32 0
  store float %58, ptr %60, align 4, !tbaa !61
  %61 = getelementptr inbounds nuw %struct.b2Vec2, ptr %8, i32 0, i32 1
  %62 = load float, ptr %61, align 4, !tbaa !31
  %63 = getelementptr inbounds nuw %struct.b2Vec2, ptr %9, i32 0, i32 1
  %64 = load float, ptr %63, align 4, !tbaa !31
  %65 = fadd float %62, %64
  %66 = fmul float 5.000000e-01, %65
  %67 = getelementptr inbounds nuw %struct.b2MassData, ptr %3, i32 0, i32 1
  %68 = getelementptr inbounds nuw %struct.b2Vec2, ptr %67, i32 0, i32 1
  store float %66, ptr %68, align 4, !tbaa !62
  call void @llvm.lifetime.start.p0(i64 4, ptr %15) #9
  %69 = load float, ptr %6, align 4, !tbaa !12
  %70 = fmul float 4.000000e+00, %69
  %71 = fdiv float %70, 0x4022D97C80000000
  store float %71, ptr %15, align 4, !tbaa !12
  call void @llvm.lifetime.start.p0(i64 4, ptr %16) #9
  %72 = load float, ptr %10, align 4, !tbaa !12
  %73 = fmul float 5.000000e-01, %72
  store float %73, ptr %16, align 4, !tbaa !12
  call void @llvm.lifetime.start.p0(i64 4, ptr %17) #9
  %74 = load float, ptr %13, align 4, !tbaa !12
  %75 = load float, ptr %7, align 4, !tbaa !12
  %76 = fmul float 5.000000e-01, %75
  %77 = load float, ptr %16, align 4, !tbaa !12
  %78 = load float, ptr %16, align 4, !tbaa !12
  %79 = fmul float %77, %78
  %80 = fadd float %76, %79
  %81 = load float, ptr %16, align 4, !tbaa !12
  %82 = fmul float 2.000000e+00, %81
  %83 = load float, ptr %15, align 4, !tbaa !12
  %84 = fmul float %82, %83
  %85 = fadd float %80, %84
  %86 = fmul float %74, %85
  store float %86, ptr %17, align 4, !tbaa !12
  call void @llvm.lifetime.start.p0(i64 4, ptr %18) #9
  %87 = load float, ptr %14, align 4, !tbaa !12
  %88 = load float, ptr %7, align 4, !tbaa !12
  %89 = fmul float 4.000000e+00, %88
  %90 = load float, ptr %12, align 4, !tbaa !12
  %91 = fadd float %89, %90
  %92 = fmul float %87, %91
  %93 = fdiv float %92, 1.200000e+01
  store float %93, ptr %18, align 4, !tbaa !12
  %94 = load float, ptr %17, align 4, !tbaa !12
  %95 = load float, ptr %18, align 4, !tbaa !12
  %96 = fadd float %94, %95
  %97 = getelementptr inbounds nuw %struct.b2MassData, ptr %3, i32 0, i32 2
  store float %96, ptr %97, align 4, !tbaa !56
  %98 = getelementptr inbounds nuw %struct.b2MassData, ptr %3, i32 0, i32 0
  %99 = load float, ptr %98, align 4, !tbaa !54
  %100 = getelementptr inbounds nuw %struct.b2MassData, ptr %3, i32 0, i32 1
  %101 = getelementptr inbounds nuw %struct.b2MassData, ptr %3, i32 0, i32 1
  %102 = load <2 x float>, ptr %100, align 4
  %103 = load <2 x float>, ptr %101, align 4
  %104 = call float @b2Dot(<2 x float> %102, <2 x float> %103)
  %105 = fmul float %99, %104
  %106 = getelementptr inbounds nuw %struct.b2MassData, ptr %3, i32 0, i32 2
  %107 = load float, ptr %106, align 4, !tbaa !56
  %108 = fadd float %107, %105
  store float %108, ptr %106, align 4, !tbaa !56
  call void @llvm.lifetime.end.p0(i64 4, ptr %18) #9
  call void @llvm.lifetime.end.p0(i64 4, ptr %17) #9
  call void @llvm.lifetime.end.p0(i64 4, ptr %16) #9
  call void @llvm.lifetime.end.p0(i64 4, ptr %15) #9
  call void @llvm.lifetime.end.p0(i64 4, ptr %14) #9
  call void @llvm.lifetime.end.p0(i64 4, ptr %13) #9
  call void @llvm.lifetime.end.p0(i64 4, ptr %12) #9
  call void @llvm.lifetime.end.p0(i64 4, ptr %10) #9
  call void @llvm.lifetime.end.p0(i64 8, ptr %9) #9
  call void @llvm.lifetime.end.p0(i64 8, ptr %8) #9
  call void @llvm.lifetime.end.p0(i64 4, ptr %7) #9
  call void @llvm.lifetime.end.p0(i64 4, ptr %6) #9
  %109 = load { <2 x float>, <2 x float> }, ptr %3, align 4
  ret { <2 x float>, <2 x float> } %109
}