; Function Attrs: mustprogress nofree norecurse nosync nounwind willreturn memory(argmem: read) uwtable
define { <2 x float>, <2 x float> } @b2ComputeCapsuleMass(ptr noundef readonly captures(none) %0, float noundef %1) local_unnamed_addr #8 {
  %3 = alloca %struct.b2MassData, align 8
  %4 = getelementptr inbounds nuw i8, ptr %0, i64 16
  %5 = load float, ptr %4, align 4, !tbaa !44
  %6 = fmul float %5, %5
  %.sroa.017.0.copyload = load <2 x float>, ptr %0, align 4
  %7 = getelementptr inbounds nuw i8, ptr %0, i64 8
  %.sroa.015.0.copyload = load <2 x float>, ptr %7, align 4
  %8 = fsub <2 x float> %.sroa.015.0.copyload, %.sroa.017.0.copyload
  %.sroa.01.4.vec.extract.i = extractelement <2 x float> %.sroa.015.0.copyload, i64 1
  %.sroa.0.4.vec.extract.i = extractelement <2 x float> %.sroa.017.0.copyload, i64 1
  %9 = fsub float %.sroa.01.4.vec.extract.i, %.sroa.0.4.vec.extract.i
  %10 = fmul <2 x float> %8, %8
  %11 = extractelement <2 x float> %10, i64 0
  %12 = fmul float %9, %9
  %13 = fadd float %11, %12
  %sqrt.i = tail call float @llvm.sqrt.f32(float %13)
  %14 = fmul float %sqrt.i, %sqrt.i
  %15 = fmul float %5, 0x400921FB60000000
  %16 = fmul float %5, %15
  %17 = fmul float %1, %16
  %18 = fmul float %5, 2.000000e+00
  %19 = fmul float %18, %sqrt.i
  %20 = fmul float %1, %19
  %21 = fadd float %17, %20
  store float %21, ptr %3, align 8, !tbaa !46
  %22 = fadd <2 x float> %.sroa.017.0.copyload, %.sroa.015.0.copyload
  %23 = extractelement <2 x float> %22, i64 0
  %24 = fmul float %23, 5.000000e-01
  %.4..4..4..4..sroa_idx50 = getelementptr inbounds nuw i8, ptr %3, i64 4
  store float %24, ptr %.4..4..4..4..sroa_idx50, align 4, !tbaa !48
  %25 = fadd float %.sroa.0.4.vec.extract.i, %.sroa.01.4.vec.extract.i
  %26 = fmul float %25, 5.000000e-01
  %.8..8..8..8..sroa_idx51 = getelementptr inbounds nuw i8, ptr %3, i64 8
  store float %26, ptr %.8..8..8..8..sroa_idx51, align 8, !tbaa !49
  %27 = fmul float %5, 4.000000e+00
  %28 = fdiv float %27, 0x4022D97C80000000
  %29 = fmul float %sqrt.i, 5.000000e-01
  %30 = fmul float %6, 5.000000e-01
  %31 = fmul float %29, %29
  %32 = fadd float %30, %31
  %33 = fmul float %29, 2.000000e+00
  %34 = fmul float %28, %33
  %35 = fadd float %32, %34
  %36 = fmul float %17, %35
  %37 = fmul float %6, 4.000000e+00
  %38 = fadd float %37, %14
  %39 = fmul float %20, %38
  %40 = fdiv float %39, 1.200000e+01
  %41 = fadd float %40, %36
  %.4..4..4..4..sroa_idx = getelementptr inbounds nuw i8, ptr %3, i64 4
  %.4..4..4..4. = load <2 x float>, ptr %.4..4..4..4..sroa_idx, align 4
  %42 = fmul <2 x float> %.4..4..4..4., %.4..4..4..4.
  %43 = fmul <2 x float> %.4..4..4..4., %.4..4..4..4.
  %shift = shufflevector <2 x float> %43, <2 x float> poison, <2 x i32> <i32 1, i32 poison>
  %44 = fadd <2 x float> %42, %shift
  %45 = extractelement <2 x float> %44, i64 0
  %46 = fmul float %21, %45
  %47 = fadd float %46, %41
  %.12..12..12..12..sroa_idx = getelementptr inbounds nuw i8, ptr %3, i64 12
  store float %47, ptr %.12..12..12..12..sroa_idx, align 4, !tbaa !50
  %.0..0..0..0..fca.0.load = load <2 x float>, ptr %3, align 8
  %.fca.0.insert = insertvalue { <2 x float>, <2 x float> } poison, <2 x float> %.0..0..0..0..fca.0.load, 0
  %.8..8..8..8..sroa_idx = getelementptr inbounds nuw i8, ptr %3, i64 8
  %.8..8..8..8..fca.1.load = load <2 x float>, ptr %.8..8..8..8..sroa_idx, align 8
  %.fca.1.insert = insertvalue { <2 x float>, <2 x float> } %.fca.0.insert, <2 x float> %.8..8..8..8..fca.1.load, 1
  ret { <2 x float>, <2 x float> } %.fca.1.insert
}